; Function Attrs: mustprogress nounwind uwtable
define dso_local void @_ZNK4llvm9SourceMgr12PrintMessageERNS_11raw_ostreamERKNS_12SMDiagnosticEb(ptr noundef nonnull readonly align 8 captures(none) dereferenceable(64) %0, ptr noundef nonnull align 8 dereferenceable(48) %1, ptr noundef nonnull align 8 dereferenceable(360) %2, i1 noundef zeroext %3) local_unnamed_addr #0 align 2 {
  %5 = getelementptr inbounds nuw i8, ptr %0, i64 48
  %6 = load ptr, ptr %5, align 8
  %.not = icmp eq ptr %6, null
  br i1 %.not, label %10, label %7

7:                                                ; preds = %4
  %8 = getelementptr inbounds nuw i8, ptr %0, i64 56
  %9 = load ptr, ptr %8, align 8
  tail call void %6(ptr noundef nonnull align 8 dereferenceable(360) %2, ptr noundef %9) #17
  br label %33

10:                                               ; preds = %4
  %11 = getelementptr inbounds nuw i8, ptr %2, i64 8
  %.sroa.0.0.copyload.i = load ptr, ptr %11, align 8
  %.not10 = icmp eq ptr %.sroa.0.0.copyload.i, null
  br i1 %.not10, label %32, label %12

12:                                               ; preds = %10
  %13 = getelementptr inbounds nuw i8, ptr %0, i64 8
  %14 = load ptr, ptr %13, align 8
  %15 = load ptr, ptr %0, align 8
  %16 = ptrtoint ptr %14 to i64
  %17 = ptrtoint ptr %15 to i64
  %18 = sub i64 %16, %17
  %19 = sdiv exact i64 %18, 24
  %20 = and i64 %19, 4294967295
  %.not12.i = icmp eq i64 %20, 0
  br i1 %.not12.i, label %_ZNK4llvm9SourceMgr23FindBufferContainingLocENS_5SMLocE.exit, label %.lr.ph.i

.lr.ph.i:                                         ; preds = %12, %30
  %indvars.iv.i = phi i64 [ %indvars.iv.next.i, %30 ], [ 0, %12 ]
  %21 = getelementptr inbounds nuw %"struct.llvm::SourceMgr::SrcBuffer", ptr %15, i64 %indvars.iv.i
  %22 = load ptr, ptr %21, align 8
  %23 = getelementptr inbounds nuw i8, ptr %22, i64 8
  %24 = load ptr, ptr %23, align 8
  %.not8.i = icmp ult ptr %.sroa.0.0.copyload.i, %24
  br i1 %.not8.i, label %30, label %25

25:                                               ; preds = %.lr.ph.i
  %26 = getelementptr inbounds nuw i8, ptr %22, i64 16
  %27 = load ptr, ptr %26, align 8
  %.not9.i = icmp ugt ptr %.sroa.0.0.copyload.i, %27
  br i1 %.not9.i, label %30, label %28

28:                                               ; preds = %25
  %29 = and i64 %indvars.iv.i, 4294967295
  br label %_ZNK4llvm9SourceMgr23FindBufferContainingLocENS_5SMLocE.exit

30:                                               ; preds = %25, %.lr.ph.i
  %indvars.iv.next.i = add nuw nsw i64 %indvars.iv.i, 1
  %.not.i = icmp eq i64 %indvars.iv.next.i, %20
  br i1 %.not.i, label %_ZNK4llvm9SourceMgr23FindBufferContainingLocENS_5SMLocE.exit, label %.lr.ph.i, !llvm.loop !9

_ZNK4llvm9SourceMgr23FindBufferContainingLocENS_5SMLocE.exit: ; preds = %30, %12, %28
  %.0.i = phi i64 [ %29, %28 ], [ 4294967295, %12 ], [ 4294967295, %30 ]
  %31 = getelementptr inbounds nuw %"struct.llvm::SourceMgr::SrcBuffer", ptr %15, i64 %.0.i, i32 2
  %.sroa.0.0.copyload = load ptr, ptr %31, align 8
  tail call void @_ZNK4llvm9SourceMgr17PrintIncludeStackENS_5SMLocERNS_11raw_ostreamE(ptr noundef nonnull align 8 dereferenceable(64) %0, ptr %.sroa.0.0.copyload, ptr noundef nonnull align 8 dereferenceable(48) %1)
  br label %32

32:                                               ; preds = %_ZNK4llvm9SourceMgr23FindBufferContainingLocENS_5SMLocE.exit, %10
  tail call void @_ZNK4llvm12SMDiagnostic5printEPKcRNS_11raw_ostreamEbbb(ptr noundef nonnull align 8 dereferenceable(360) %2, ptr noundef null, ptr noundef nonnull align 8 dereferenceable(48) %1, i1 noundef zeroext %3, i1 noundef zeroext true, i1 noundef zeroext true)
  br label %33

33:                                               ; preds = %32, %7
  ret void
}